target datalayout = "e-m:e-p270:32:32-p271:32:32-p272:64:64-i64:64-i128:128-f80:128-n8:16:32:64-S128"
target triple = "x86_64-pc-linux-gnu"

%struct.evp_pkey_ctx_st = type { i32, ptr, ptr, ptr, ptr, %union.anon, %struct.anon.4, ptr, ptr, ptr, i32, i32, ptr, ptr, ptr, ptr, ptr, i8, ptr }
%union.anon = type { %struct.anon.0 }
%struct.anon.0 = type { ptr, ptr }
%struct.anon.4 = type { ptr, ptr, i64, i8 }
%struct.CRYPTO_REF_COUNT = type { i32 }
%struct.anon.3 = type { ptr, ptr }
%struct.evp_kem_st = type { i32, ptr, ptr, ptr, %struct.CRYPTO_REF_COUNT, ptr, ptr, ptr, ptr, ptr, ptr, ptr, ptr, ptr, ptr, ptr, ptr, ptr }

@.str = private unnamed_addr constant [28 x i8] c"../openssl/crypto/evp/kem.c\00", align 1
@__func__.EVP_PKEY_decapsulate = private unnamed_addr constant [21 x i8] c"EVP_PKEY_decapsulate\00", align 1

; Function Attrs: nounwind uwtable
define i32 @EVP_PKEY_decapsulate(ptr noundef %0, ptr noundef %1, ptr noundef %2, ptr noundef %3, i64 noundef %4) #0 {
  %6 = alloca i32, align 4
  %7 = alloca ptr, align 8
  %8 = alloca ptr, align 8
  %9 = alloca ptr, align 8
  %10 = alloca ptr, align 8
  %11 = alloca i64, align 8
  store ptr %0, ptr %7, align 8, !tbaa !3
  store ptr %1, ptr %8, align 8, !tbaa !21
  store ptr %2, ptr %9, align 8, !tbaa !57
  store ptr %3, ptr %10, align 8, !tbaa !21
  store i64 %4, ptr %11, align 8, !tbaa !60
  %12 = load ptr, ptr %7, align 8, !tbaa !3
  %13 = icmp eq ptr %12, null
  br i1 %13, label %26, label %14

14:                                               ; preds = %5
  %15 = load ptr, ptr %10, align 8, !tbaa !21
  %16 = icmp eq ptr %15, null
  br i1 %16, label %26, label %17

17:                                               ; preds = %14
  %18 = load i64, ptr %11, align 8, !tbaa !60
  %19 = icmp eq i64 %18, 0
  br i1 %19, label %26, label %20

20:                                               ; preds = %17
  %21 = load ptr, ptr %8, align 8, !tbaa !21
  %22 = icmp eq ptr %21, null
  br i1 %22, label %23, label %27

23:                                               ; preds = %20
  %24 = load ptr, ptr %9, align 8, !tbaa !57
  %25 = icmp eq ptr %24, null
  br i1 %25, label %26, label %27

26:                                               ; preds = %23, %17, %14, %5
  store i32 0, ptr %6, align 4
  br label %56

27:                                               ; preds = %23, %20
  %28 = load ptr, ptr %7, align 8, !tbaa !3
  %29 = getelementptr inbounds nuw %struct.evp_pkey_ctx_st, ptr %28, i32 0, i32 0
  %30 = load i32, ptr %29, align 8, !tbaa !32
  %31 = icmp ne i32 %30, 8192
  br i1 %31, label %32, label %33

32:                                               ; preds = %27
  call void @ERR_new()
  call void @ERR_set_debug(ptr noundef @.str, i32 noundef 272, ptr noundef @__func__.EVP_PKEY_decapsulate)
  call void (i32, i32, ptr, ...) @ERR_set_error(i32 noundef 6, i32 noundef 151, ptr noundef null)
  store i32 -1, ptr %6, align 4
  br label %56

33:                                               ; preds = %27
  %34 = load ptr, ptr %7, align 8, !tbaa !3
  %35 = getelementptr inbounds nuw %struct.evp_pkey_ctx_st, ptr %34, i32 0, i32 5
  %36 = getelementptr inbounds nuw %struct.anon.3, ptr %35, i32 0, i32 1
  %37 = load ptr, ptr %36, align 8, !tbaa !49
  %38 = icmp eq ptr %37, null
  br i1 %38, label %39, label %40

39:                                               ; preds = %33
  call void @ERR_new()
  call void @ERR_set_debug(ptr noundef @.str, i32 noundef 277, ptr noundef @__func__.EVP_PKEY_decapsulate)
  call void (i32, i32, ptr, ...) @ERR_set_error(i32 noundef 6, i32 noundef 150, ptr noundef null)
  store i32 -2, ptr %6, align 4
  br label %56

40:                                               ; preds = %33
  %41 = load ptr, ptr %7, align 8, !tbaa !3
  %42 = getelementptr inbounds nuw %struct.evp_pkey_ctx_st, ptr %41, i32 0, i32 5
  %43 = getelementptr inbounds nuw %struct.anon.3, ptr %42, i32 0, i32 0
  %44 = load ptr, ptr %43, align 8, !tbaa !49
  %45 = getelementptr inbounds nuw %struct.evp_kem_st, ptr %44, i32 0, i32 9
  %46 = load ptr, ptr %45, align 8, !tbaa !61
  %47 = load ptr, ptr %7, align 8, !tbaa !3
  %48 = getelementptr inbounds nuw %struct.evp_pkey_ctx_st, ptr %47, i32 0, i32 5
  %49 = getelementptr inbounds nuw %struct.anon.3, ptr %48, i32 0, i32 1
  %50 = load ptr, ptr %49, align 8, !tbaa !49
  %51 = load ptr, ptr %8, align 8, !tbaa !21
  %52 = load ptr, ptr %9, align 8, !tbaa !57
  %53 = load ptr, ptr %10, align 8, !tbaa !21
  %54 = load i64, ptr %11, align 8, !tbaa !60
  %55 = call i32 %46(ptr noundef %50, ptr noundef %51, ptr noundef %52, ptr noundef %53, i64 noundef %54)
  store i32 %55, ptr %6, align 4
  br label %56

56:                                               ; preds = %40, %39, %32, %26
  %57 = load i32, ptr %6, align 4
  ret i32 %57
}