; Function Attrs: nounwind uwtable
define i32 @EVP_PKEY_decapsulate(ptr noundef readonly captures(address_is_null) %0, ptr noundef %1, ptr noundef %2, ptr noundef %3, i64 noundef %4) local_unnamed_addr #0 {
  %6 = icmp eq ptr %0, null
  %7 = icmp eq ptr %3, null
  %or.cond = or i1 %6, %7
  %8 = icmp eq i64 %4, 0
  %or.cond3 = or i1 %or.cond, %8
  br i1 %or.cond3, label %26, label %9

9:                                                ; preds = %5
  %10 = icmp eq ptr %1, null
  %11 = icmp eq ptr %2, null
  %or.cond5 = and i1 %10, %11
  br i1 %or.cond5, label %26, label %12

12:                                               ; preds = %9
  %13 = load i32, ptr %0, align 8, !tbaa !20
  %.not = icmp eq i32 %13, 8192
  br i1 %.not, label %15, label %14

14:                                               ; preds = %12
  tail call void @ERR_new() #5
  tail call void @ERR_set_debug(ptr noundef nonnull @.str, i32 noundef 272, ptr noundef nonnull @__func__.EVP_PKEY_decapsulate) #5
  tail call void (i32, i32, ptr, ...) @ERR_set_error(i32 noundef 6, i32 noundef 151, ptr noundef null) #5
  br label %26

15:                                               ; preds = %12
  %16 = getelementptr inbounds nuw i8, ptr %0, i64 48
  %17 = load ptr, ptr %16, align 8, !tbaa !42
  %18 = icmp eq ptr %17, null
  br i1 %18, label %19, label %20

19:                                               ; preds = %15
  tail call void @ERR_new() #5
  tail call void @ERR_set_debug(ptr noundef nonnull @.str, i32 noundef 277, ptr noundef nonnull @__func__.EVP_PKEY_decapsulate) #5
  tail call void (i32, i32, ptr, ...) @ERR_set_error(i32 noundef 6, i32 noundef 150, ptr noundef null) #5
  br label %26

20:                                               ; preds = %15
  %21 = getelementptr inbounds nuw i8, ptr %0, i64 40
  %22 = load ptr, ptr %21, align 8, !tbaa !42
  %23 = getelementptr inbounds nuw i8, ptr %22, i64 72
  %24 = load ptr, ptr %23, align 8, !tbaa !49
  %25 = tail call i32 %24(ptr noundef nonnull %17, ptr noundef %1, ptr noundef %2, ptr noundef nonnull %3, i64 noundef %4) #5
  br label %26

26:                                               ; preds = %5, %9, %20, %19, %14
  %.0 = phi i32 [ -1, %14 ], [ -2, %19 ], [ %25, %20 ], [ 0, %9 ], [ 0, %5 ]
  ret i32 %.0
}